Archive member included because of file (symbol)

lib/lib.a(ctype.o)            kernel/kernel.o (_ctype)
lib/lib.a(_exit.o)            init/main.o (_exit)
lib/lib.a(open.o)             init/main.o (open)
lib/lib.a(close.o)            init/main.o (close)
lib/lib.a(errno.o)            init/main.o (errno)
lib/lib.a(write.o)            init/main.o (write)
lib/lib.a(dup.o)              init/main.o (dup)
lib/lib.a(setsid.o)           init/main.o (setsid)
lib/lib.a(execve.o)           init/main.o (execve)
lib/lib.a(wait.o)             init/main.o (wait)
lib/lib.a(string.o)           kernel/kernel.o (memcpy)

Allocating common symbols
Common symbol       size              file

errno               0x4               lib/lib.a(errno.o)
hash_table          0x4cc             fs/fs.o
___strtok           0x4               lib/lib.a(string.o)
r                   0x4               kernel/kernel.o
user_stack          0x1000            kernel/kernel.o
_ctmp               0x1               lib/lib.a(ctype.o)
global_key          0x400             kernel/kernel.o
super_block         0x340             fs/fs.o
file_table          0x400             fs/fs.o

Discarded input sections

 .note.GNU-stack
                0x0000000000000000        0x0 init/main.o
 .note.GNU-stack
                0x0000000000000000        0x0 kernel/kernel.o
 .note.GNU-stack
                0x0000000000000000        0x0 mm/mm.o
 .note.GNU-stack
                0x0000000000000000        0x0 fs/fs.o
 .note.GNU-stack
                0x0000000000000000        0x0 lib/lib.a(ctype.o)
 .note.GNU-stack
                0x0000000000000000        0x0 lib/lib.a(_exit.o)
 .note.GNU-stack
                0x0000000000000000        0x0 lib/lib.a(open.o)
 .note.GNU-stack
                0x0000000000000000        0x0 lib/lib.a(close.o)
 .note.GNU-stack
                0x0000000000000000        0x0 lib/lib.a(errno.o)
 .note.GNU-stack
                0x0000000000000000        0x0 lib/lib.a(write.o)
 .note.GNU-stack
                0x0000000000000000        0x0 lib/lib.a(dup.o)
 .note.GNU-stack
                0x0000000000000000        0x0 lib/lib.a(setsid.o)
 .note.GNU-stack
                0x0000000000000000        0x0 lib/lib.a(execve.o)
 .note.GNU-stack
                0x0000000000000000        0x0 lib/lib.a(wait.o)
 .note.GNU-stack
                0x0000000000000000        0x0 lib/lib.a(string.o)

Memory Configuration

Name             Origin             Length             Attributes
*default*        0x0000000000000000 0xffffffffffffffff

Linker script and memory map

Address of section .text set to 0x0
LOAD boot/head.o
LOAD init/main.o
LOAD kernel/kernel.o
LOAD mm/mm.o
LOAD fs/fs.o
LOAD lib/lib.a
                0x0000000008048000                PROVIDE (__executable_start, 0x8048000)
                0x0000000008048094                . = (0x8048000 + SIZEOF_HEADERS)

.interp
 *(.interp)

.note.gnu.build-id
 *(.note.gnu.build-id)

.hash
 *(.hash)

.gnu.hash
 *(.gnu.hash)

.dynsym
 *(.dynsym)

.dynstr
 *(.dynstr)

.gnu.version
 *(.gnu.version)

.gnu.version_d
 *(.gnu.version_d)

.gnu.version_r
 *(.gnu.version_r)

.rel.dyn        0x0000000008048094        0x0
 *(.rel.init)
 *(.rel.text .rel.text.* .rel.gnu.linkonce.t.*)
 .rel.text      0x0000000000000000        0x0 boot/head.o
 *(.rel.fini)
 *(.rel.rodata .rel.rodata.* .rel.gnu.linkonce.r.*)
 *(.rel.data.rel.ro* .rel.gnu.linkonce.d.rel.ro.*)
 *(.rel.data .rel.data.* .rel.gnu.linkonce.d.*)
 .rel.data      0x0000000000000000        0x0 boot/head.o
 *(.rel.tdata .rel.tdata.* .rel.gnu.linkonce.td.*)
 *(.rel.tbss .rel.tbss.* .rel.gnu.linkonce.tb.*)
 *(.rel.ctors)
 *(.rel.dtors)
 *(.rel.got)
 *(.rel.bss .rel.bss.* .rel.gnu.linkonce.b.*)
 *(.rel.ifunc)

.rel.plt        0x0000000008048094        0x0
 *(.rel.plt)
                0x0000000008048094                PROVIDE (__rel_iplt_start, .)
 *(.rel.iplt)
 .rel.iplt      0x0000000000000000        0x0 boot/head.o
                0x0000000008048094                PROVIDE (__rel_iplt_end, .)

.init
 *(.init)

.plt            0x00000000080480a0        0x0
 *(.plt)
 *(.iplt)
 .iplt          0x0000000000000000        0x0 boot/head.o

.text           0x0000000000000000     0xfb45
 *(.text.unlikely .text.*_unlikely)
 *(.text.exit .text.exit.*)
 *(.text.startup .text.startup.*)
 *(.text.hot .text.hot.*)
 *(.text .stub .text.* .gnu.linkonce.t.*)
 .text          0x0000000000000000     0x5078 boot/head.o
                0x0000000000000000                startup_32
                0x0000000000000000                pg_dir
                0x0000000000004078                idt
                0x0000000000004878                gdt
 *fill*         0x0000000000005078        0x8 90909090
 .text          0x0000000000005080      0x370 init/main.o
                0x00000000000050c1                init
                0x0000000000005232                main
 .text          0x00000000000053f0     0x4d27 kernel/kernel.o
                0x00000000000053f0                sys_alarm
                0x0000000000005417                sys_getpid
                0x0000000000005423                sys_getppid
                0x000000000000542f                sys_getuid
                0x000000000000543c                sys_geteuid
                0x0000000000005449                sys_getgid
                0x0000000000005456                sys_getegid
                0x0000000000005463                sys_nice
                0x000000000000547c                sys_signal
                0x00000000000054b9                math_state_restore
                0x00000000000054f0                schedule
                0x00000000000055e1                sys_pause
                0x00000000000055f7                sleep_on
                0x0000000000005651                interruptible_sleep_on
                0x00000000000056bb                wake_up
                0x00000000000056d7                do_timer
                0x000000000000571d                sched_init
                0x0000000000005844                system_call
                0x0000000000005936                timer_interrupt
                0x000000000000596e                sys_execve
                0x000000000000597c                sys_fork
                0x0000000000005994                hd_interrupt
                0x0000000000005b41                do_double_fault
                0x0000000000005b5a                do_general_protection
                0x0000000000005b73                do_divide_error
                0x0000000000005b8c                do_int3
                0x0000000000005c44                do_nmi
                0x0000000000005c5d                do_debug
                0x0000000000005c76                do_overflow
                0x0000000000005c8f                do_bounds
                0x0000000000005ca8                do_invalid_op
                0x0000000000005cc1                do_device_not_available
                0x0000000000005cda                do_coprocessor_segment_overrun
                0x0000000000005cf3                do_invalid_TSS
                0x0000000000005d0c                do_segment_not_present
                0x0000000000005d25                do_stack_segment
                0x0000000000005d3e                do_coprocessor_error
                0x0000000000005d57                do_reserved
                0x0000000000005d70                trap_init
                0x0000000000005f2c                divide_error
                0x0000000000005f61                debug
                0x0000000000005f68                nmi
                0x0000000000005f6f                int3
                0x0000000000005f76                overflow
                0x0000000000005f7d                bounds
                0x0000000000005f84                invalid_op
                0x0000000000005f93                device_not_available
                0x0000000000005fc0                coprocessor_segment_overrun
                0x0000000000005fca                reserved
                0x0000000000005fd4                coprocessor_error
                0x0000000000005fde                double_fault
                0x0000000000006015                invalid_TSS
                0x000000000000601c                segment_not_present
                0x0000000000006023                stack_segment
                0x000000000000602a                general_protection
                0x0000000000006034                verify_area
                0x0000000000006099                copy_mem
                0x000000000000618f                copy_process
                0x000000000000641e                find_empty_process
                0x0000000000006480                panic
                0x000000000000649c                printk
                0x0000000000006726                vsprintf
                0x0000000000006a90                tty_init
                0x0000000000006aa1                tty_intr
                0x0000000000006ae6                copy_to_cooked
                0x0000000000006d66                tty_read
                0x000000000000702c                tty_write
                0x0000000000007209                do_tty_interrupt
                0x0000000000007435                csi_m
                0x0000000000007490                con_write
                0x0000000000007dfa                con_init
                0x0000000000007e7d                sys_clear
                0x0000000000007eb2                sys_videowrite
                0x0000000000007f13                keyboard_interrupt
                0x00000000000084ba                user_key_map_size
                0x00000000000084e2                user_key_ptr
                0x00000000000084e6                user_shift_ptr
                0x00000000000084ea                user_alt_ptr
                0x00000000000084ee                selected_layout
                0x00000000000089dc                rs1_interrupt
                0x00000000000089e4                rs2_interrupt
                0x0000000000009149                rw_hd
                0x00000000000091f2                sys_setup
                0x00000000000092f1                unexpected_hd_interrupt
                0x0000000000009304                hd_init
                0x0000000000009374                sys_ftime
                0x000000000000937a                sys_mknod
                0x0000000000009380                sys_break
                0x0000000000009386                sys_mount
                0x000000000000938c                sys_umount
                0x0000000000009392                sys_ustat
                0x0000000000009398                sys_ptrace
                0x000000000000939e                sys_stty
                0x00000000000093a4                sys_gtty
                0x00000000000093aa                sys_rename
                0x00000000000093b0                sys_prof
                0x00000000000093b6                sys_setgid
                0x0000000000009413                sys_acct
                0x0000000000009419                sys_phys
                0x000000000000941f                sys_lock
                0x0000000000009425                sys_mpx
                0x000000000000942b                sys_ulimit
                0x0000000000009431                sys_time
                0x0000000000009484                sys_setuid
                0x00000000000094dd                sys_stime
                0x000000000000952a                sys_times
                0x0000000000009583                sys_brk
                0x00000000000095b6                sys_setpgid
                0x000000000000962b                sys_getpgrp
                0x0000000000009637                sys_setsid
                0x000000000000968c                sys_oldolduname
                0x00000000000096a4                sys_uname
                0x00000000000096f1                sys_umask
                0x000000000000970f                sys_null
                0x0000000000009731                itoa
                0x00000000000097cc                sys_encrypt
                0x00000000000097e4                generate_random
                0x0000000000009829                is_random_valid
                0x0000000000009869                sys_keygen
                0x00000000000098ea                sys_keyclear
                0x0000000000009923                sys_keyshow
                0x0000000000009953                sys_keyset
                0x0000000000009985                sys_change_user_layout
                0x00000000000099f0                release
                0x0000000000009a4a                do_kill
                0x0000000000009cc3                sys_kill
                0x0000000000009cf9                do_exit
                0x0000000000009e8c                sys_exit
                0x0000000000009ea7                sys_waitpid
                0x000000000000a02e                rs_init
                0x000000000000a086                rs_write
                0x000000000000a0b0                kernel_mktime
 *fill*         0x000000000000a117        0x1 90909090
 .text          0x000000000000a118      0x517 mm/mm.o
                0x000000000000a118                invalidate
                0x000000000000a121                copy_page
                0x000000000000a146                get_free_page
                0x000000000000a17e                free_page
                0x000000000000a1de                free_page_tables
                0x000000000000a28e                copy_page_tables
                0x000000000000a388                put_page
                0x000000000000a435                un_wp_page
                0x000000000000a4c5                do_wp_page
                0x000000000000a4f5                write_verify
                0x000000000000a534                do_no_page
                0x000000000000a564                calc_mem
                0x000000000000a5f8                page_fault
 *fill*         0x000000000000a62f        0x1 90909090
 .text          0x000000000000a630     0x4f5c fs/fs.o
                0x000000000000a630                sys_utime
                0x000000000000a699                sys_access
                0x000000000000a730                sys_chdir
                0x000000000000a793                sys_chroot
                0x000000000000a7f6                sys_chmod
                0x000000000000a88b                sys_chown
                0x000000000000a8f2                sys_open
                0x000000000000aa86                sys_creat
                0x000000000000aaa9                sys_close
                0x000000000000ab30                sys_lseek
                0x000000000000abec                sys_read
                0x000000000000ad47                sys_write
                0x000000000000b25b                sync_inodes
                0x000000000000b2a5                bmap
                0x000000000000b2be                create_block
                0x000000000000b2d7                iput
                0x000000000000b3c5                get_empty_inode
                0x000000000000b4b3                get_pipe_inode
                0x000000000000b4fa                iget
                0x000000000000b6e7                sys_sync
                0x000000000000b74f                brelse
                0x000000000000b7a1                get_hash_table
                0x000000000000b800                getblk
                0x000000000000ba9f                bread
                0x000000000000baf9                buffer_init
                0x000000000000bb94                do_mount
                0x000000000000bd9f                mount_root
                0x000000000000bef0                block_write
                0x000000000000bfd3                block_read
                0x000000000000c0aa                ll_rw_block
                0x000000000000c173                rw_char
                0x000000000000c1e4                sys_encr
                0x000000000000c1fc                file_read
                0x000000000000c3a7                file_write
                0x000000000000c646                sys_stat
                0x000000000000c68b                sys_lstat
                0x000000000000c6a6                sys_fstat
                0x000000000000c6e9                sys_stat64
                0x000000000000c72e                sys_fstat64
                0x000000000000c771                sys_lstat64
                0x000000000000c78c                sys_oldstat
                0x000000000000c7a4                sys_oldfstat
                0x000000000000c8e4                cp_block
                0x000000000000c919                is_valid_elf
                0x000000000000c95e                read_file_block_ind
                0x000000000000c9f3                read_file_block
                0x000000000000caf2                copy_section
                0x000000000000cbe0                create_bss_section
                0x000000000000cc06                load_elf_binary
                0x000000000000ce11                do_execve
                0x000000000000d2a4                read_pipe
                0x000000000000d33d                write_pipe
                0x000000000000d436                sys_pipe
                0x000000000000da69                namei
                0x000000000000db1f                open_namei
                0x000000000000dd85                sys_mkdir
                0x000000000000e03a                sys_rmdir
                0x000000000000e3ac                sys_unlink
                0x000000000000e548                sys_link
                0x000000000000e6f0                free_block
                0x000000000000e82b                new_block
                0x000000000000e9ae                free_inode
                0x000000000000eada                new_inode
                0x000000000000ecba                sys_dup2
                0x000000000000ecda                sys_dup
                0x000000000000ecea                sys_fcntl
                0x000000000000eda7                sys_fcntl64
                0x000000000000edfc                sys_ioctl
                0x000000000000ee99                tty_ioctl
                0x000000000000f165                truncate
                0x000000000000f270                sys_getdents
                0x000000000000f3fe                sys_getdents64
 .text          0x000000000000f58c        0x0 lib/lib.a(ctype.o)
 .text          0x000000000000f58c        0xe lib/lib.a(_exit.o)
                0x000000000000f58c                _exit
 *fill*         0x000000000000f59a        0x2 90909090
 .text          0x000000000000f59c       0x3d lib/lib.a(open.o)
                0x000000000000f59c                open
 *fill*         0x000000000000f5d9        0x3 90909090
 .text          0x000000000000f5dc       0x23 lib/lib.a(close.o)
                0x000000000000f5dc                close
 *fill*         0x000000000000f5ff        0x1 90909090
 .text          0x000000000000f600        0x0 lib/lib.a(errno.o)
 .text          0x000000000000f600       0x3d lib/lib.a(write.o)
                0x000000000000f600                write
 *fill*         0x000000000000f63d        0x3 90909090
 .text          0x000000000000f640       0x23 lib/lib.a(dup.o)
                0x000000000000f640                dup
 *fill*         0x000000000000f663        0x1 90909090
 .text          0x000000000000f664       0x1e lib/lib.a(setsid.o)
                0x000000000000f664                setsid
 *fill*         0x000000000000f682        0x2 90909090
 .text          0x000000000000f684       0x3d lib/lib.a(execve.o)
                0x000000000000f684                execve
 *fill*         0x000000000000f6c1        0x3 90909090
 .text          0x000000000000f6c4       0x60 lib/lib.a(wait.o)
                0x000000000000f6c4                waitpid
                0x000000000000f701                wait
 .text          0x000000000000f724      0x421 lib/lib.a(string.o)
                0x000000000000f724                strcpy
                0x000000000000f74c                strncpy
                0x000000000000f77d                strcat
                0x000000000000f7b2                strncat
                0x000000000000f7f1                strcmp
                0x000000000000f81f                strncmp
                0x000000000000f854                strchr
                0x000000000000f872                strrchr
                0x000000000000f893                strspn
                0x000000000000f8e0                strcspn
                0x000000000000f92d                strpbrk
                0x000000000000f972                strstr
                0x000000000000f9b7                strlen
                0x000000000000f9d0                strtok
                0x000000000000fa61                memcpy
                0x000000000000fa87                memmove
                0x000000000000fad5                memcmp
                0x000000000000fb09                memchr
                0x000000000000fb2f                memset
 *(.gnu.warning)

.fini
 *(.fini)
                0x000000000000fb45                PROVIDE (__etext, .)
                0x000000000000fb45                PROVIDE (_etext, .)
                0x000000000000fb45                PROVIDE (etext, .)

.rodata         0x000000000000fb60     0x107c
 *(.rodata .rodata.* .gnu.linkonce.r.*)
 .rodata.str1.1
                0x000000000000fb60       0x68 init/main.o
 .rodata.str1.4
                0x000000000000fbc8       0x25 init/main.o
 *fill*         0x000000000000fbed       0x13 00
 .rodata        0x000000000000fc00      0x270 kernel/kernel.o
 .rodata.str1.1
                0x000000000000fe70      0x2c2 kernel/kernel.o
                                        0x2cb (size before relaxing)
 *fill*         0x0000000000010132        0x2 00
 .rodata.str1.4
                0x0000000000010134      0x1fc kernel/kernel.o
 .rodata.str1.4
                0x0000000000010330       0xe9 mm/mm.o
 .rodata.str1.1
                0x0000000000010419       0x68 mm/mm.o
 *fill*         0x0000000000010481       0x1f 00
 .rodata        0x00000000000104a0       0xc4 fs/fs.o
 .rodata.str1.1
                0x0000000000010564      0x341 fs/fs.o
                                        0x347 (size before relaxing)
 *fill*         0x00000000000108a5        0x3 00
 .rodata.str1.4
                0x00000000000108a8      0x334 fs/fs.o

.rodata1
 *(.rodata1)

.eh_frame_hdr
 *(.eh_frame_hdr)

.eh_frame       0x0000000000010bdc     0x2300
 *(.eh_frame)
 .eh_frame      0x0000000000010bdc       0x74 init/main.o
 .eh_frame      0x0000000000010c50      0xe64 kernel/kernel.o
                                        0xf9c (size before relaxing)
 .eh_frame      0x0000000000011ab4      0x1a8 mm/mm.o
                                        0x1c0 (size before relaxing)
 .eh_frame      0x0000000000011c5c      0xf24 fs/fs.o
                                       0x10d4 (size before relaxing)
 .eh_frame      0x0000000000012b80       0x1c lib/lib.a(_exit.o)
                                         0x34 (size before relaxing)
 .eh_frame      0x0000000000012b9c       0x20 lib/lib.a(open.o)
                                         0x38 (size before relaxing)
 .eh_frame      0x0000000000012bbc       0x1c lib/lib.a(close.o)
                                         0x34 (size before relaxing)
 .eh_frame      0x0000000000012bd8       0x20 lib/lib.a(write.o)
                                         0x38 (size before relaxing)
 .eh_frame      0x0000000000012bf8       0x1c lib/lib.a(dup.o)
                                         0x34 (size before relaxing)
 .eh_frame      0x0000000000012c14       0x14 lib/lib.a(setsid.o)
                                         0x2c (size before relaxing)
 .eh_frame      0x0000000000012c28       0x20 lib/lib.a(execve.o)
                                         0x38 (size before relaxing)
 .eh_frame      0x0000000000012c48       0x38 lib/lib.a(wait.o)
                                         0x50 (size before relaxing)
 .eh_frame      0x0000000000012c80      0x25c lib/lib.a(string.o)
                                        0x274 (size before relaxing)

.gcc_except_table
 *(.gcc_except_table .gcc_except_table.*)

.exception_ranges
 *(.exception_ranges .exception_ranges*)
                0x0000000000012edc                . = (ALIGN (0x1000) - ((0x1000 - .) & 0xfff))
                0x0000000000013000                . = DATA_SEGMENT_ALIGN (0x1000, 0x1000)

.eh_frame
 *(.eh_frame)

.gcc_except_table
 *(.gcc_except_table .gcc_except_table.*)

.exception_ranges
 *(.exception_ranges .exception_ranges*)

.tdata
 *(.tdata .tdata.* .gnu.linkonce.td.*)

.tbss
 *(.tbss .tbss.* .gnu.linkonce.tb.*)
 *(.tcommon)

.preinit_array  0x0000000000013000        0x0
                0x0000000000013000                PROVIDE (__preinit_array_start, .)
 *(.preinit_array)
                0x0000000000013000                PROVIDE (__preinit_array_end, .)

.init_array     0x0000000000013000        0x0
                0x0000000000013000                PROVIDE (__init_array_start, .)
 *(SORT(.init_array.*) SORT(.ctors.*))
 *(.init_array)
 *(EXCLUDE_FILE(*crtend?.o *crtend.o *crtbegin?.o *crtbegin.o) .ctors)
                0x0000000000013000                PROVIDE (__init_array_end, .)

.fini_array     0x0000000000013000        0x0
                0x0000000000013000                PROVIDE (__fini_array_start, .)
 *(SORT(.fini_array.*) SORT(.dtors.*))
 *(.fini_array)
 *(EXCLUDE_FILE(*crtend?.o *crtend.o *crtbegin?.o *crtbegin.o) .dtors)
                0x0000000000013000                PROVIDE (__fini_array_end, .)

.ctors
 *crtbegin.o(.ctors)
 *crtbegin?.o(.ctors)
 *(EXCLUDE_FILE(*crtend?.o *crtend.o) .ctors)
 *(SORT(.ctors.*))
 *(.ctors)

.dtors
 *crtbegin.o(.dtors)
 *crtbegin?.o(.dtors)
 *(EXCLUDE_FILE(*crtend?.o *crtend.o) .dtors)
 *(SORT(.dtors.*))
 *(.dtors)

.jcr
 *(.jcr)

.data.rel.ro
 *(.data.rel.ro.local* .gnu.linkonce.d.rel.ro.local.*)
 *(.data.rel.ro* .gnu.linkonce.d.rel.ro.*)

.dynamic
 *(.dynamic)

.got
 *(.got)
 *(.igot)
                0x0000000000013000                . = DATA_SEGMENT_RELRO_END (., 0xc)

.got.plt        0x0000000000013000        0x0
 *(.got.plt)
 *(.igot.plt)
 .igot.plt      0x0000000000000000        0x0 boot/head.o

.data           0x0000000000013000     0x3e64
 *(.data .data.* .gnu.linkonce.d.*)
 .data          0x0000000000013000        0x0 boot/head.o
 .data          0x0000000000013000       0x18 init/main.o
 *fill*         0x0000000000013018        0x8 00
 .data          0x0000000000013020     0x3d2c kernel/kernel.o
                0x0000000000013020                stack_start
                0x0000000000013040                task
                0x0000000000013140                current
                0x0000000000013160                sys_call_table
                0x0000000000014660                table_list
                0x0000000000014680                tty_table
 .data          0x0000000000016d4c        0x0 mm/mm.o
 .data          0x0000000000016d4c        0x4 fs/fs.o
                0x0000000000016d4c                start_buffer
 *fill*         0x0000000000016d50       0x10 00
 .data          0x0000000000016d60      0x101 lib/lib.a(ctype.o)
                0x0000000000016d60                _ctype
 *fill*         0x0000000000016e61        0x3 00
 .data          0x0000000000016e64        0x0 lib/lib.a(_exit.o)
 .data          0x0000000000016e64        0x0 lib/lib.a(open.o)
 .data          0x0000000000016e64        0x0 lib/lib.a(close.o)
 .data          0x0000000000016e64        0x0 lib/lib.a(errno.o)
 .data          0x0000000000016e64        0x0 lib/lib.a(write.o)
 .data          0x0000000000016e64        0x0 lib/lib.a(dup.o)
 .data          0x0000000000016e64        0x0 lib/lib.a(setsid.o)
 .data          0x0000000000016e64        0x0 lib/lib.a(execve.o)
 .data          0x0000000000016e64        0x0 lib/lib.a(wait.o)
 .data          0x0000000000016e64        0x0 lib/lib.a(string.o)

.data1
 *(.data1)
                0x0000000000016e64                _edata = .
                0x0000000000016e64                PROVIDE (edata, .)
                0x0000000000016e64                __bss_start = .

.bss            0x0000000000016e80     0x414c
 *(.dynbss)
 *(.bss .bss.* .gnu.linkonce.b.*)
 .bss           0x0000000000016e80        0x0 boot/head.o
 .bss           0x0000000000016e80      0x400 init/main.o
 .bss           0x0000000000017280      0x9cc kernel/kernel.o
                0x0000000000017280                last_task_used_math
                0x0000000000017284                startup_time
                0x0000000000017288                jiffies
                0x000000000001728c                last_pid
                0x0000000000017740                do_hd
 *fill*         0x0000000000017c4c       0x14 00
 .bss           0x0000000000017c60      0xc00 mm/mm.o
 .bss           0x0000000000018860      0x710 fs/fs.o
                0x0000000000018860                inode_table
                0x0000000000018f64                nr_buffers
 .bss           0x0000000000018f70        0x0 lib/lib.a(ctype.o)
 .bss           0x0000000000018f70        0x0 lib/lib.a(_exit.o)
 .bss           0x0000000000018f70        0x0 lib/lib.a(open.o)
 .bss           0x0000000000018f70        0x0 lib/lib.a(close.o)
 .bss           0x0000000000018f70        0x0 lib/lib.a(errno.o)
 .bss           0x0000000000018f70        0x0 lib/lib.a(write.o)
 .bss           0x0000000000018f70        0x0 lib/lib.a(dup.o)
 .bss           0x0000000000018f70        0x0 lib/lib.a(setsid.o)
 .bss           0x0000000000018f70        0x0 lib/lib.a(execve.o)
 .bss           0x0000000000018f70        0x0 lib/lib.a(wait.o)
 .bss           0x0000000000018f70        0x0 lib/lib.a(string.o)
 *(COMMON)
 *fill*         0x0000000000018f70       0x10 00
 COMMON         0x0000000000018f80     0x1420 kernel/kernel.o
                0x0000000000018f80                r
                0x0000000000018fa0                user_stack
                0x0000000000019fa0                global_key
 COMMON         0x000000000001a3a0      0xc20 fs/fs.o
                0x000000000001a3a0                hash_table
                0x000000000001a880                super_block
                0x000000000001abc0                file_table
 COMMON         0x000000000001afc0        0x1 lib/lib.a(ctype.o)
                0x000000000001afc0                _ctmp
 *fill*         0x000000000001afc1        0x3 00
 COMMON         0x000000000001afc4        0x4 lib/lib.a(errno.o)
                0x000000000001afc4                errno
 COMMON         0x000000000001afc8        0x4 lib/lib.a(string.o)
                0x000000000001afc8                ___strtok
                0x000000000001afcc                . = ALIGN ((. != 0x0)?0x4:0x1)
                0x000000000001afcc                . = ALIGN (0x4)
                0x000000000001afcc                . = ALIGN (0x4)
                0x000000000001afcc                _end = .
                0x000000000001afcc                PROVIDE (end, .)
                0x000000000001afcc                . = DATA_SEGMENT_END (.)

.stab
 *(.stab)

.stabstr
 *(.stabstr)

.stab.excl
 *(.stab.excl)

.stab.exclstr
 *(.stab.exclstr)

.stab.index
 *(.stab.index)

.stab.indexstr
 *(.stab.indexstr)

.comment        0x0000000000000000       0x2a
 *(.comment)
 .comment       0x0000000000000000       0x2a init/main.o
                                         0x2b (size before relaxing)
 .comment       0x0000000000000000      0x22f kernel/kernel.o
 .comment       0x0000000000000000       0x2b mm/mm.o
 .comment       0x0000000000000000      0x331 fs/fs.o
 .comment       0x0000000000000000       0x2b lib/lib.a(ctype.o)
 .comment       0x0000000000000000       0x2b lib/lib.a(_exit.o)
 .comment       0x0000000000000000       0x2b lib/lib.a(open.o)
 .comment       0x0000000000000000       0x2b lib/lib.a(close.o)
 .comment       0x0000000000000000       0x2b lib/lib.a(errno.o)
 .comment       0x0000000000000000       0x2b lib/lib.a(write.o)
 .comment       0x0000000000000000       0x2b lib/lib.a(dup.o)
 .comment       0x0000000000000000       0x2b lib/lib.a(setsid.o)
 .comment       0x0000000000000000       0x2b lib/lib.a(execve.o)
 .comment       0x0000000000000000       0x2b lib/lib.a(wait.o)
 .comment       0x0000000000000000       0x2b lib/lib.a(string.o)

.debug
 *(.debug)

.line
 *(.line)

.debug_srcinfo
 *(.debug_srcinfo)

.debug_sfnames
 *(.debug_sfnames)

.debug_aranges  0x0000000000000000      0x540
 *(.debug_aranges)
 .debug_aranges
                0x0000000000000000       0x20 init/main.o
 .debug_aranges
                0x0000000000000020      0x1a0 kernel/kernel.o
 .debug_aranges
                0x00000000000001c0       0x20 mm/mm.o
 .debug_aranges
                0x00000000000001e0      0x240 fs/fs.o
 .debug_aranges
                0x0000000000000420       0x20 lib/lib.a(_exit.o)
 .debug_aranges
                0x0000000000000440       0x20 lib/lib.a(open.o)
 .debug_aranges
                0x0000000000000460       0x20 lib/lib.a(close.o)
 .debug_aranges
                0x0000000000000480       0x20 lib/lib.a(write.o)
 .debug_aranges
                0x00000000000004a0       0x20 lib/lib.a(dup.o)
 .debug_aranges
                0x00000000000004c0       0x20 lib/lib.a(setsid.o)
 .debug_aranges
                0x00000000000004e0       0x20 lib/lib.a(execve.o)
 .debug_aranges
                0x0000000000000500       0x20 lib/lib.a(wait.o)
 .debug_aranges
                0x0000000000000520       0x20 lib/lib.a(string.o)

.debug_pubnames
 *(.debug_pubnames)

.debug_info     0x0000000000000000    0x1a966
 *(.debug_info .gnu.linkonce.wi.*)
 .debug_info    0x0000000000000000      0xccf init/main.o
 .debug_info    0x0000000000000ccf     0x8dd2 kernel/kernel.o
 .debug_info    0x0000000000009aa1      0x4d6 mm/mm.o
 .debug_info    0x0000000000009f77     0xe2fe fs/fs.o
 .debug_info    0x0000000000018275       0x70 lib/lib.a(ctype.o)
 .debug_info    0x00000000000182e5      0x3af lib/lib.a(_exit.o)
 .debug_info    0x0000000000018694      0x403 lib/lib.a(open.o)
 .debug_info    0x0000000000018a97      0x3ce lib/lib.a(close.o)
 .debug_info    0x0000000000018e65       0x3f lib/lib.a(errno.o)
 .debug_info    0x0000000000018ea4      0x400 lib/lib.a(write.o)
 .debug_info    0x00000000000192a4      0x3ce lib/lib.a(dup.o)
 .debug_info    0x0000000000019672      0x3cb lib/lib.a(setsid.o)
 .debug_info    0x0000000000019a3d      0x3fc lib/lib.a(execve.o)
 .debug_info    0x0000000000019e39      0x428 lib/lib.a(wait.o)
 .debug_info    0x000000000001a261      0x705 lib/lib.a(string.o)

.debug_abbrev   0x0000000000000000     0x450f
 *(.debug_abbrev)
 .debug_abbrev  0x0000000000000000      0x1d7 init/main.o
 .debug_abbrev  0x00000000000001d7     0x18b7 kernel/kernel.o
 .debug_abbrev  0x0000000000001a8e      0x1af mm/mm.o
 .debug_abbrev  0x0000000000001c3d     0x213d fs/fs.o
 .debug_abbrev  0x0000000000003d7a       0x42 lib/lib.a(ctype.o)
 .debug_abbrev  0x0000000000003dbc       0xa3 lib/lib.a(_exit.o)
 .debug_abbrev  0x0000000000003e5f       0xdc lib/lib.a(open.o)
 .debug_abbrev  0x0000000000003f3b       0xb4 lib/lib.a(close.o)
 .debug_abbrev  0x0000000000003fef       0x30 lib/lib.a(errno.o)
 .debug_abbrev  0x000000000000401f       0xd7 lib/lib.a(write.o)
 .debug_abbrev  0x00000000000040f6       0xb4 lib/lib.a(dup.o)
 .debug_abbrev  0x00000000000041aa       0xb2 lib/lib.a(setsid.o)
 .debug_abbrev  0x000000000000425c       0xbb lib/lib.a(execve.o)
 .debug_abbrev  0x0000000000004317       0xd0 lib/lib.a(wait.o)
 .debug_abbrev  0x00000000000043e7      0x128 lib/lib.a(string.o)

.debug_line     0x0000000000000000     0x3649
 *(.debug_line)
 .debug_line    0x0000000000000000      0x11e init/main.o
 .debug_line    0x000000000000011e     0x13b2 kernel/kernel.o
 .debug_line    0x00000000000014d0      0x122 mm/mm.o
 .debug_line    0x00000000000015f2     0x1b8f fs/fs.o
 .debug_line    0x0000000000003181       0x28 lib/lib.a(ctype.o)
 .debug_line    0x00000000000031a9       0x50 lib/lib.a(_exit.o)
 .debug_line    0x00000000000031f9       0x76 lib/lib.a(open.o)
 .debug_line    0x000000000000326f       0x6e lib/lib.a(close.o)
 .debug_line    0x00000000000032dd       0x28 lib/lib.a(errno.o)
 .debug_line    0x0000000000003305       0x8c lib/lib.a(write.o)
 .debug_line    0x0000000000003391       0x6c lib/lib.a(dup.o)
 .debug_line    0x00000000000033fd       0x88 lib/lib.a(setsid.o)
 .debug_line    0x0000000000003485       0x73 lib/lib.a(execve.o)
 .debug_line    0x00000000000034f8       0x90 lib/lib.a(wait.o)
 .debug_line    0x0000000000003588       0xc1 lib/lib.a(string.o)

.debug_frame
 *(.debug_frame)

.debug_str      0x0000000000000000     0x1b40
 *(.debug_str)
 .debug_str     0x0000000000000000      0x3ff init/main.o
                                        0x4b1 (size before relaxing)
 .debug_str     0x00000000000003ff      0xbd9 kernel/kernel.o
                                       0x3330 (size before relaxing)
 .debug_str     0x0000000000000fd8      0x132 mm/mm.o
                                        0x1cd (size before relaxing)
 .debug_str     0x000000000000110a      0x958 fs/fs.o
                                       0x54ba (size before relaxing)
 .debug_str     0x0000000000001a62       0x32 lib/lib.a(ctype.o)
                                         0x72 (size before relaxing)
 .debug_str     0x0000000000001a94        0x8 lib/lib.a(_exit.o)
                                        0x290 (size before relaxing)
 .debug_str     0x0000000000000000        0x8 lib/lib.a(open.o)
                                        0x2a0 (size before relaxing)
 .debug_str     0x0000000000001a9c        0x8 lib/lib.a(close.o)
                                        0x292 (size before relaxing)
 .debug_str     0x0000000000001aa4        0x8 lib/lib.a(errno.o)
                                         0x44 (size before relaxing)
 .debug_str     0x0000000000000000        0x8 lib/lib.a(write.o)
                                        0x29e (size before relaxing)
 .debug_str     0x0000000000001aac        0x6 lib/lib.a(dup.o)
                                        0x28a (size before relaxing)
 .debug_str     0x0000000000001ab2        0x9 lib/lib.a(setsid.o)
                                        0x29a (size before relaxing)
 .debug_str     0x0000000000001abb        0x9 lib/lib.a(execve.o)
                                        0x2a3 (size before relaxing)
 .debug_str     0x0000000000001ac4       0x11 lib/lib.a(wait.o)
                                        0x2b0 (size before relaxing)
 .debug_str     0x0000000000001ad5       0x6b lib/lib.a(string.o)
                                         0xf8 (size before relaxing)

.debug_loc      0x0000000000000000     0xab81
 *(.debug_loc)
 .debug_loc     0x0000000000000000      0x256 init/main.o
 .debug_loc     0x0000000000000256     0x3999 kernel/kernel.o
 .debug_loc     0x0000000000003bef      0x640 mm/mm.o
 .debug_loc     0x000000000000422f     0x637f fs/fs.o
 .debug_loc     0x000000000000a5ae       0x2c lib/lib.a(_exit.o)
 .debug_loc     0x000000000000a5da       0x3f lib/lib.a(open.o)
 .debug_loc     0x000000000000a619       0x3f lib/lib.a(close.o)
 .debug_loc     0x000000000000a658       0x57 lib/lib.a(write.o)
 .debug_loc     0x000000000000a6af       0x3f lib/lib.a(dup.o)
 .debug_loc     0x000000000000a6ee       0x13 lib/lib.a(setsid.o)
 .debug_loc     0x000000000000a701       0x57 lib/lib.a(execve.o)
 .debug_loc     0x000000000000a758       0x83 lib/lib.a(wait.o)
 .debug_loc     0x000000000000a7db      0x3a6 lib/lib.a(string.o)

.debug_macinfo
 *(.debug_macinfo)

.debug_weaknames
 *(.debug_weaknames)

.debug_funcnames
 *(.debug_funcnames)

.debug_typenames
 *(.debug_typenames)

.debug_varnames
 *(.debug_varnames)

.debug_pubtypes
 *(.debug_pubtypes)

.debug_ranges   0x0000000000000000      0x458
 *(.debug_ranges)
 .debug_ranges  0x0000000000000000      0x150 kernel/kernel.o
 .debug_ranges  0x0000000000000150      0x308 fs/fs.o

.gnu.attributes
 *(.gnu.attributes)

/DISCARD/
 *(.note.GNU-stack)
 *(.gnu_debuglink)
 *(.gnu.lto_*)
OUTPUT(tools/system elf32-i386)
