Archive member included because of file (symbol)

lib/lib.a(ctype.o)            kernel/kernel.o (_ctype)
lib/lib.a(_exit.o)            init/main.o (_exit)
lib/lib.a(open.o)             init/main.o (open)
lib/lib.a(close.o)            init/main.o (close)
lib/lib.a(errno.o)            init/main.o (errno)
lib/lib.a(write.o)            init/main.o (write)
lib/lib.a(dup.o)              init/main.o (dup)
lib/lib.a(setsid.o)           init/main.o (setsid)
lib/lib.a(execve.o)           init/main.o (execve)
lib/lib.a(wait.o)             init/main.o (wait)
lib/lib.a(string.o)           kernel/kernel.o (memcpy)

Allocating common symbols
Common symbol       size              file

errno               0x4               lib/lib.a(errno.o)
hash_table          0x4cc             fs/fs.o
___strtok           0x4               lib/lib.a(string.o)
r                   0x4               kernel/kernel.o
user_stack          0x1000            kernel/kernel.o
_ctmp               0x1               lib/lib.a(ctype.o)
global_key          0x400             kernel/kernel.o
super_block         0x340             fs/fs.o
encrypted_files     0x800             kernel/kernel.o
file_table          0x400             fs/fs.o

Discarded input sections

 .note.GNU-stack
                0x0000000000000000        0x0 init/main.o
 .note.GNU-stack
                0x0000000000000000        0x0 kernel/kernel.o
 .note.GNU-stack
                0x0000000000000000        0x0 mm/mm.o
 .note.GNU-stack
                0x0000000000000000        0x0 fs/fs.o
 .note.GNU-stack
                0x0000000000000000        0x0 lib/lib.a(ctype.o)
 .note.GNU-stack
                0x0000000000000000        0x0 lib/lib.a(_exit.o)
 .note.GNU-stack
                0x0000000000000000        0x0 lib/lib.a(open.o)
 .note.GNU-stack
                0x0000000000000000        0x0 lib/lib.a(close.o)
 .note.GNU-stack
                0x0000000000000000        0x0 lib/lib.a(errno.o)
 .note.GNU-stack
                0x0000000000000000        0x0 lib/lib.a(write.o)
 .note.GNU-stack
                0x0000000000000000        0x0 lib/lib.a(dup.o)
 .note.GNU-stack
                0x0000000000000000        0x0 lib/lib.a(setsid.o)
 .note.GNU-stack
                0x0000000000000000        0x0 lib/lib.a(execve.o)
 .note.GNU-stack
                0x0000000000000000        0x0 lib/lib.a(wait.o)
 .note.GNU-stack
                0x0000000000000000        0x0 lib/lib.a(string.o)

Memory Configuration

Name             Origin             Length             Attributes
*default*        0x0000000000000000 0xffffffffffffffff

Linker script and memory map

Address of section .text set to 0x0
LOAD boot/head.o
LOAD init/main.o
LOAD kernel/kernel.o
LOAD mm/mm.o
LOAD fs/fs.o
LOAD lib/lib.a
                0x0000000008048000                PROVIDE (__executable_start, 0x8048000)
                0x0000000008048094                . = (0x8048000 + SIZEOF_HEADERS)

.interp
 *(.interp)

.note.gnu.build-id
 *(.note.gnu.build-id)

.hash
 *(.hash)

.gnu.hash
 *(.gnu.hash)

.dynsym
 *(.dynsym)

.dynstr
 *(.dynstr)

.gnu.version
 *(.gnu.version)

.gnu.version_d
 *(.gnu.version_d)

.gnu.version_r
 *(.gnu.version_r)

.rel.dyn        0x0000000008048094        0x0
 *(.rel.init)
 *(.rel.text .rel.text.* .rel.gnu.linkonce.t.*)
 .rel.text      0x0000000000000000        0x0 boot/head.o
 *(.rel.fini)
 *(.rel.rodata .rel.rodata.* .rel.gnu.linkonce.r.*)
 *(.rel.data.rel.ro* .rel.gnu.linkonce.d.rel.ro.*)
 *(.rel.data .rel.data.* .rel.gnu.linkonce.d.*)
 .rel.data      0x0000000000000000        0x0 boot/head.o
 *(.rel.tdata .rel.tdata.* .rel.gnu.linkonce.td.*)
 *(.rel.tbss .rel.tbss.* .rel.gnu.linkonce.tb.*)
 *(.rel.ctors)
 *(.rel.dtors)
 *(.rel.got)
 *(.rel.bss .rel.bss.* .rel.gnu.linkonce.b.*)
 *(.rel.ifunc)

.rel.plt        0x0000000008048094        0x0
 *(.rel.plt)
                0x0000000008048094                PROVIDE (__rel_iplt_start, .)
 *(.rel.iplt)
 .rel.iplt      0x0000000000000000        0x0 boot/head.o
                0x0000000008048094                PROVIDE (__rel_iplt_end, .)

.init
 *(.init)

.plt            0x00000000080480a0        0x0
 *(.plt)
 *(.iplt)
 .iplt          0x0000000000000000        0x0 boot/head.o

.text           0x0000000000000000    0x10185
 *(.text.unlikely .text.*_unlikely)
 *(.text.exit .text.exit.*)
 *(.text.startup .text.startup.*)
 *(.text.hot .text.hot.*)
 *(.text .stub .text.* .gnu.linkonce.t.*)
 .text          0x0000000000000000     0x5078 boot/head.o
                0x0000000000000000                startup_32
                0x0000000000000000                pg_dir
                0x0000000000004078                idt
                0x0000000000004878                gdt
 *fill*         0x0000000000005078        0x8 90909090
 .text          0x0000000000005080      0x370 init/main.o
                0x00000000000050c1                init
                0x0000000000005232                main
 .text          0x00000000000053f0     0x5372 kernel/kernel.o
                0x00000000000053f0                sys_alarm
                0x0000000000005417                sys_getpid
                0x0000000000005423                sys_getppid
                0x000000000000542f                sys_getuid
                0x000000000000543c                sys_geteuid
                0x0000000000005449                sys_getgid
                0x0000000000005456                sys_getegid
                0x0000000000005463                sys_nice
                0x000000000000547c                sys_signal
                0x00000000000054b9                math_state_restore
                0x00000000000054f0                schedule
                0x00000000000055e1                sys_pause
                0x00000000000055f7                sleep_on
                0x0000000000005651                interruptible_sleep_on
                0x00000000000056bb                wake_up
                0x00000000000056d7                do_timer
                0x000000000000571d                sched_init
                0x0000000000005844                system_call
                0x0000000000005936                timer_interrupt
                0x000000000000596e                sys_execve
                0x000000000000597c                sys_fork
                0x0000000000005994                hd_interrupt
                0x0000000000005b41                do_double_fault
                0x0000000000005b5a                do_general_protection
                0x0000000000005b73                do_divide_error
                0x0000000000005b8c                do_int3
                0x0000000000005c44                do_nmi
                0x0000000000005c5d                do_debug
                0x0000000000005c76                do_overflow
                0x0000000000005c8f                do_bounds
                0x0000000000005ca8                do_invalid_op
                0x0000000000005cc1                do_device_not_available
                0x0000000000005cda                do_coprocessor_segment_overrun
                0x0000000000005cf3                do_invalid_TSS
                0x0000000000005d0c                do_segment_not_present
                0x0000000000005d25                do_stack_segment
                0x0000000000005d3e                do_coprocessor_error
                0x0000000000005d57                do_reserved
                0x0000000000005d70                trap_init
                0x0000000000005f2c                divide_error
                0x0000000000005f61                debug
                0x0000000000005f68                nmi
                0x0000000000005f6f                int3
                0x0000000000005f76                overflow
                0x0000000000005f7d                bounds
                0x0000000000005f84                invalid_op
                0x0000000000005f93                device_not_available
                0x0000000000005fc0                coprocessor_segment_overrun
                0x0000000000005fca                reserved
                0x0000000000005fd4                coprocessor_error
                0x0000000000005fde                double_fault
                0x0000000000006015                invalid_TSS
                0x000000000000601c                segment_not_present
                0x0000000000006023                stack_segment
                0x000000000000602a                general_protection
                0x0000000000006034                verify_area
                0x0000000000006099                copy_mem
                0x000000000000618f                copy_process
                0x000000000000641e                find_empty_process
                0x0000000000006480                panic
                0x000000000000649c                printk
                0x0000000000006726                vsprintf
                0x0000000000006a90                tty_init
                0x0000000000006aa1                tty_intr
                0x0000000000006ae6                copy_to_cooked
                0x0000000000006d66                tty_read
                0x000000000000702c                tty_write
                0x0000000000007209                do_tty_interrupt
                0x0000000000007435                csi_m
                0x0000000000007490                con_write
                0x0000000000007dfa                con_init
                0x0000000000007e7d                sys_clear
                0x0000000000007eb2                sys_videowrite
                0x0000000000007f13                keyboard_interrupt
                0x00000000000084ba                user_key_map_size
                0x00000000000084e2                user_key_ptr
                0x00000000000084e6                user_shift_ptr
                0x00000000000084ea                user_alt_ptr
                0x00000000000084ee                selected_layout
                0x00000000000089dc                rs1_interrupt
                0x00000000000089e4                rs2_interrupt
                0x0000000000009149                rw_hd
                0x00000000000091f2                sys_setup
                0x00000000000092f1                unexpected_hd_interrupt
                0x0000000000009304                hd_init
                0x0000000000009374                sys_ftime
                0x000000000000937a                sys_mknod
                0x0000000000009380                sys_break
                0x0000000000009386                sys_mount
                0x000000000000938c                sys_umount
                0x0000000000009392                sys_ustat
                0x0000000000009398                sys_ptrace
                0x000000000000939e                sys_stty
                0x00000000000093a4                sys_gtty
                0x00000000000093aa                sys_rename
                0x00000000000093b0                sys_prof
                0x00000000000093b6                sys_setgid
                0x0000000000009413                sys_acct
                0x0000000000009419                sys_phys
                0x000000000000941f                sys_lock
                0x0000000000009425                sys_mpx
                0x000000000000942b                sys_ulimit
                0x0000000000009431                sys_time
                0x0000000000009484                sys_setuid
                0x00000000000094dd                sys_stime
                0x000000000000952a                sys_times
                0x0000000000009583                sys_brk
                0x00000000000095b6                sys_setpgid
                0x000000000000962b                sys_getpgrp
                0x0000000000009637                sys_setsid
                0x000000000000968c                sys_oldolduname
                0x00000000000096a4                sys_uname
                0x00000000000096f1                sys_umask
                0x000000000000970f                sys_null
                0x0000000000009731                sys_test
                0x0000000000009744                sys_change_user_layout
                0x00000000000097b0                release
                0x000000000000980a                do_kill
                0x0000000000009a83                sys_kill
                0x0000000000009ab9                do_exit
                0x0000000000009c4c                sys_exit
                0x0000000000009c67                sys_waitpid
                0x0000000000009dee                rs_init
                0x0000000000009e46                rs_write
                0x0000000000009e70                kernel_mktime
                0x0000000000009ed8                itoa
                0x0000000000009f73                printint
                0x0000000000009fa1                generate_random
                0x0000000000009fe6                is_random_valid
                0x000000000000a026                sys_keygen
                0x000000000000a0a7                sys_keyclear
                0x000000000000a0e0                sys_keyshow
                0x000000000000a139                sys_keyset
                0x000000000000a167                is_global_key_set
                0x000000000000a190                is_file_encrypted
                0x000000000000a1d1                decrypt_file
                0x000000000000a21a                sort
                0x000000000000a2b7                sys_encr
                0x000000000000a2cf                buffer_encrypt
                0x000000000000a460                file_encrypt
                0x000000000000a4d0                sys_encrypt
                0x000000000000a558                buffer_decrypt
                0x000000000000a68d                file_decrypt
                0x000000000000a6ec                sys_decrypt
 *fill*         0x000000000000a762        0x2 90909090
 .text          0x000000000000a764      0x517 mm/mm.o
                0x000000000000a764                invalidate
                0x000000000000a76d                copy_page
                0x000000000000a792                get_free_page
                0x000000000000a7ca                free_page
                0x000000000000a82a                free_page_tables
                0x000000000000a8da                copy_page_tables
                0x000000000000a9d4                put_page
                0x000000000000aa81                un_wp_page
                0x000000000000ab11                do_wp_page
                0x000000000000ab41                write_verify
                0x000000000000ab80                do_no_page
                0x000000000000abb0                calc_mem
                0x000000000000ac44                page_fault
 *fill*         0x000000000000ac7b        0x5 90909090
 .text          0x000000000000ac80     0x4f4c fs/fs.o
                0x000000000000ac80                sys_utime
                0x000000000000ace9                sys_access
                0x000000000000ad80                sys_chdir
                0x000000000000ade3                sys_chroot
                0x000000000000ae46                sys_chmod
                0x000000000000aedb                sys_chown
                0x000000000000af42                sys_open
                0x000000000000b0d6                sys_creat
                0x000000000000b0f9                sys_close
                0x000000000000b180                sys_lseek
                0x000000000000b23c                sys_read
                0x000000000000b397                sys_write
                0x000000000000b8ab                sync_inodes
                0x000000000000b8f5                bmap
                0x000000000000b90e                create_block
                0x000000000000b927                iput
                0x000000000000ba15                get_empty_inode
                0x000000000000bb03                get_pipe_inode
                0x000000000000bb4a                iget
                0x000000000000bd37                sys_sync
                0x000000000000bd9f                brelse
                0x000000000000bdf1                get_hash_table
                0x000000000000be50                getblk
                0x000000000000c0ef                bread
                0x000000000000c149                buffer_init
                0x000000000000c1e4                do_mount
                0x000000000000c3ef                mount_root
                0x000000000000c540                block_write
                0x000000000000c623                block_read
                0x000000000000c6fa                ll_rw_block
                0x000000000000c7c3                rw_char
                0x000000000000c834                file_read
                0x000000000000c9df                file_write
                0x000000000000cc7e                sys_stat
                0x000000000000ccc3                sys_lstat
                0x000000000000ccde                sys_fstat
                0x000000000000cd21                sys_stat64
                0x000000000000cd66                sys_fstat64
                0x000000000000cda9                sys_lstat64
                0x000000000000cdc4                sys_oldstat
                0x000000000000cddc                sys_oldfstat
                0x000000000000cf24                cp_block
                0x000000000000cf59                is_valid_elf
                0x000000000000cf9e                read_file_block_ind
                0x000000000000d033                read_file_block
                0x000000000000d132                copy_section
                0x000000000000d220                create_bss_section
                0x000000000000d246                load_elf_binary
                0x000000000000d451                do_execve
                0x000000000000d8e4                read_pipe
                0x000000000000d97d                write_pipe
                0x000000000000da76                sys_pipe
                0x000000000000e0a9                namei
                0x000000000000e15f                open_namei
                0x000000000000e3c5                sys_mkdir
                0x000000000000e67a                sys_rmdir
                0x000000000000e9ec                sys_unlink
                0x000000000000eb88                sys_link
                0x000000000000ed30                free_block
                0x000000000000ee6b                new_block
                0x000000000000efee                free_inode
                0x000000000000f11a                new_inode
                0x000000000000f2fa                sys_dup2
                0x000000000000f31a                sys_dup
                0x000000000000f32a                sys_fcntl
                0x000000000000f3e7                sys_fcntl64
                0x000000000000f43c                sys_ioctl
                0x000000000000f4d9                tty_ioctl
                0x000000000000f7a5                truncate
                0x000000000000f8b0                sys_getdents
                0x000000000000fa3e                sys_getdents64
 .text          0x000000000000fbcc        0x0 lib/lib.a(ctype.o)
 .text          0x000000000000fbcc        0xe lib/lib.a(_exit.o)
                0x000000000000fbcc                _exit
 *fill*         0x000000000000fbda        0x2 90909090
 .text          0x000000000000fbdc       0x3d lib/lib.a(open.o)
                0x000000000000fbdc                open
 *fill*         0x000000000000fc19        0x3 90909090
 .text          0x000000000000fc1c       0x23 lib/lib.a(close.o)
                0x000000000000fc1c                close
 *fill*         0x000000000000fc3f        0x1 90909090
 .text          0x000000000000fc40        0x0 lib/lib.a(errno.o)
 .text          0x000000000000fc40       0x3d lib/lib.a(write.o)
                0x000000000000fc40                write
 *fill*         0x000000000000fc7d        0x3 90909090
 .text          0x000000000000fc80       0x23 lib/lib.a(dup.o)
                0x000000000000fc80                dup
 *fill*         0x000000000000fca3        0x1 90909090
 .text          0x000000000000fca4       0x1e lib/lib.a(setsid.o)
                0x000000000000fca4                setsid
 *fill*         0x000000000000fcc2        0x2 90909090
 .text          0x000000000000fcc4       0x3d lib/lib.a(execve.o)
                0x000000000000fcc4                execve
 *fill*         0x000000000000fd01        0x3 90909090
 .text          0x000000000000fd04       0x60 lib/lib.a(wait.o)
                0x000000000000fd04                waitpid
                0x000000000000fd41                wait
 .text          0x000000000000fd64      0x421 lib/lib.a(string.o)
                0x000000000000fd64                strcpy
                0x000000000000fd8c                strncpy
                0x000000000000fdbd                strcat
                0x000000000000fdf2                strncat
                0x000000000000fe31                strcmp
                0x000000000000fe5f                strncmp
                0x000000000000fe94                strchr
                0x000000000000feb2                strrchr
                0x000000000000fed3                strspn
                0x000000000000ff20                strcspn
                0x000000000000ff6d                strpbrk
                0x000000000000ffb2                strstr
                0x000000000000fff7                strlen
                0x0000000000010010                strtok
                0x00000000000100a1                memcpy
                0x00000000000100c7                memmove
                0x0000000000010115                memcmp
                0x0000000000010149                memchr
                0x000000000001016f                memset
 *(.gnu.warning)

.fini
 *(.fini)
                0x0000000000010185                PROVIDE (__etext, .)
                0x0000000000010185                PROVIDE (_etext, .)
                0x0000000000010185                PROVIDE (etext, .)

.rodata         0x00000000000101a0     0x10c4
 *(.rodata .rodata.* .gnu.linkonce.r.*)
 .rodata.str1.1
                0x00000000000101a0       0x68 init/main.o
 .rodata.str1.4
                0x0000000000010208       0x25 init/main.o
 *fill*         0x000000000001022d       0x13 00
 .rodata        0x0000000000010240      0x270 kernel/kernel.o
 .rodata.str1.1
                0x00000000000104b0      0x335 kernel/kernel.o
                                        0x347 (size before relaxing)
 *fill*         0x00000000000107e5        0x3 00
 .rodata.str1.4
                0x00000000000107e8      0x1fc kernel/kernel.o
 .rodata.str1.4
                0x00000000000109e4       0xe9 mm/mm.o
 .rodata.str1.1
                0x0000000000010acd       0x68 mm/mm.o
 *fill*         0x0000000000010b35        0xb 00
 .rodata        0x0000000000010b40       0xc4 fs/fs.o
 .rodata.str1.1
                0x0000000000010c04      0x32c fs/fs.o
                                        0x332 (size before relaxing)
 .rodata.str1.4
                0x0000000000010f30      0x334 fs/fs.o

.rodata1
 *(.rodata1)

.eh_frame_hdr
 *(.eh_frame_hdr)

.eh_frame       0x0000000000011264     0x24e4
 *(.eh_frame)
 .eh_frame      0x0000000000011264       0x74 init/main.o
 .eh_frame      0x00000000000112d8     0x1060 kernel/kernel.o
                                       0x11e0 (size before relaxing)
 .eh_frame      0x0000000000012338      0x1a8 mm/mm.o
                                        0x1c0 (size before relaxing)
 .eh_frame      0x00000000000124e0      0xf0c fs/fs.o
                                       0x10bc (size before relaxing)
 .eh_frame      0x00000000000133ec       0x1c lib/lib.a(_exit.o)
                                         0x34 (size before relaxing)
 .eh_frame      0x0000000000013408       0x20 lib/lib.a(open.o)
                                         0x38 (size before relaxing)
 .eh_frame      0x0000000000013428       0x1c lib/lib.a(close.o)
                                         0x34 (size before relaxing)
 .eh_frame      0x0000000000013444       0x20 lib/lib.a(write.o)
                                         0x38 (size before relaxing)
 .eh_frame      0x0000000000013464       0x1c lib/lib.a(dup.o)
                                         0x34 (size before relaxing)
 .eh_frame      0x0000000000013480       0x14 lib/lib.a(setsid.o)
                                         0x2c (size before relaxing)
 .eh_frame      0x0000000000013494       0x20 lib/lib.a(execve.o)
                                         0x38 (size before relaxing)
 .eh_frame      0x00000000000134b4       0x38 lib/lib.a(wait.o)
                                         0x50 (size before relaxing)
 .eh_frame      0x00000000000134ec      0x25c lib/lib.a(string.o)
                                        0x274 (size before relaxing)

.gcc_except_table
 *(.gcc_except_table .gcc_except_table.*)

.exception_ranges
 *(.exception_ranges .exception_ranges*)
                0x0000000000013748                . = (ALIGN (0x1000) - ((0x1000 - .) & 0xfff))
                0x0000000000014748                . = DATA_SEGMENT_ALIGN (0x1000, 0x1000)

.eh_frame
 *(.eh_frame)

.gcc_except_table
 *(.gcc_except_table .gcc_except_table.*)

.exception_ranges
 *(.exception_ranges .exception_ranges*)

.tdata
 *(.tdata .tdata.* .gnu.linkonce.td.*)

.tbss
 *(.tbss .tbss.* .gnu.linkonce.tb.*)
 *(.tcommon)

.preinit_array  0x0000000000014748        0x0
                0x0000000000014748                PROVIDE (__preinit_array_start, .)
 *(.preinit_array)
                0x0000000000014748                PROVIDE (__preinit_array_end, .)

.init_array     0x0000000000014748        0x0
                0x0000000000014748                PROVIDE (__init_array_start, .)
 *(SORT(.init_array.*) SORT(.ctors.*))
 *(.init_array)
 *(EXCLUDE_FILE(*crtend?.o *crtend.o *crtbegin?.o *crtbegin.o) .ctors)
                0x0000000000014748                PROVIDE (__init_array_end, .)

.fini_array     0x0000000000014748        0x0
                0x0000000000014748                PROVIDE (__fini_array_start, .)
 *(SORT(.fini_array.*) SORT(.dtors.*))
 *(.fini_array)
 *(EXCLUDE_FILE(*crtend?.o *crtend.o *crtbegin?.o *crtbegin.o) .dtors)
                0x0000000000014748                PROVIDE (__fini_array_end, .)

.ctors
 *crtbegin.o(.ctors)
 *crtbegin?.o(.ctors)
 *(EXCLUDE_FILE(*crtend?.o *crtend.o) .ctors)
 *(SORT(.ctors.*))
 *(.ctors)

.dtors
 *crtbegin.o(.dtors)
 *crtbegin?.o(.dtors)
 *(EXCLUDE_FILE(*crtend?.o *crtend.o) .dtors)
 *(SORT(.dtors.*))
 *(.dtors)

.jcr
 *(.jcr)

.data.rel.ro
 *(.data.rel.ro.local* .gnu.linkonce.d.rel.ro.local.*)
 *(.data.rel.ro* .gnu.linkonce.d.rel.ro.*)

.dynamic
 *(.dynamic)

.got
 *(.got)
 *(.igot)
                0x0000000000014748                . = DATA_SEGMENT_RELRO_END (., 0xc)

.got.plt        0x0000000000014748        0x0
 *(.got.plt)
 *(.igot.plt)
 .igot.plt      0x0000000000000000        0x0 boot/head.o

.data           0x0000000000014760     0x3e84
 *(.data .data.* .gnu.linkonce.d.*)
 .data          0x0000000000014760        0x0 boot/head.o
 .data          0x0000000000014760       0x18 init/main.o
 *fill*         0x0000000000014778        0x8 00
 .data          0x0000000000014780     0x3d4c kernel/kernel.o
                0x0000000000014780                stack_start
                0x00000000000147a0                task
                0x00000000000148a0                current
                0x00000000000148c0                sys_call_table
                0x0000000000015dc0                table_list
                0x0000000000015de0                tty_table
                0x0000000000018320                testing
 .data          0x00000000000184cc        0x0 mm/mm.o
 .data          0x00000000000184cc        0x4 fs/fs.o
                0x00000000000184cc                start_buffer
 *fill*         0x00000000000184d0       0x10 00
 .data          0x00000000000184e0      0x101 lib/lib.a(ctype.o)
                0x00000000000184e0                _ctype
 *fill*         0x00000000000185e1        0x3 00
 .data          0x00000000000185e4        0x0 lib/lib.a(_exit.o)
 .data          0x00000000000185e4        0x0 lib/lib.a(open.o)
 .data          0x00000000000185e4        0x0 lib/lib.a(close.o)
 .data          0x00000000000185e4        0x0 lib/lib.a(errno.o)
 .data          0x00000000000185e4        0x0 lib/lib.a(write.o)
 .data          0x00000000000185e4        0x0 lib/lib.a(dup.o)
 .data          0x00000000000185e4        0x0 lib/lib.a(setsid.o)
 .data          0x00000000000185e4        0x0 lib/lib.a(execve.o)
 .data          0x00000000000185e4        0x0 lib/lib.a(wait.o)
 .data          0x00000000000185e4        0x0 lib/lib.a(string.o)

.data1
 *(.data1)
                0x00000000000185e4                _edata = .
                0x00000000000185e4                PROVIDE (edata, .)
                0x00000000000185e4                __bss_start = .

.bss            0x0000000000018600     0x494c
 *(.dynbss)
 *(.bss .bss.* .gnu.linkonce.b.*)
 .bss           0x0000000000018600        0x0 boot/head.o
 .bss           0x0000000000018600      0x400 init/main.o
 .bss           0x0000000000018a00      0x9d0 kernel/kernel.o
                0x0000000000018a00                last_task_used_math
                0x0000000000018a04                startup_time
                0x0000000000018a08                jiffies
                0x0000000000018a0c                last_pid
                0x0000000000018ec0                do_hd
                0x00000000000193cc                current_encrypted_files
 *fill*         0x00000000000193d0       0x10 00
 .bss           0x00000000000193e0      0xc00 mm/mm.o
 .bss           0x0000000000019fe0      0x710 fs/fs.o
                0x0000000000019fe0                inode_table
                0x000000000001a6e4                nr_buffers
 .bss           0x000000000001a6f0        0x0 lib/lib.a(ctype.o)
 .bss           0x000000000001a6f0        0x0 lib/lib.a(_exit.o)
 .bss           0x000000000001a6f0        0x0 lib/lib.a(open.o)
 .bss           0x000000000001a6f0        0x0 lib/lib.a(close.o)
 .bss           0x000000000001a6f0        0x0 lib/lib.a(errno.o)
 .bss           0x000000000001a6f0        0x0 lib/lib.a(write.o)
 .bss           0x000000000001a6f0        0x0 lib/lib.a(dup.o)
 .bss           0x000000000001a6f0        0x0 lib/lib.a(setsid.o)
 .bss           0x000000000001a6f0        0x0 lib/lib.a(execve.o)
 .bss           0x000000000001a6f0        0x0 lib/lib.a(wait.o)
 .bss           0x000000000001a6f0        0x0 lib/lib.a(string.o)
 *(COMMON)
 *fill*         0x000000000001a6f0       0x10 00
 COMMON         0x000000000001a700     0x1c20 kernel/kernel.o
                0x000000000001a700                r
                0x000000000001a720                user_stack
                0x000000000001b720                global_key
                0x000000000001bb20                encrypted_files
 COMMON         0x000000000001c320      0xc20 fs/fs.o
                0x000000000001c320                hash_table
                0x000000000001c800                super_block
                0x000000000001cb40                file_table
 COMMON         0x000000000001cf40        0x1 lib/lib.a(ctype.o)
                0x000000000001cf40                _ctmp
 *fill*         0x000000000001cf41        0x3 00
 COMMON         0x000000000001cf44        0x4 lib/lib.a(errno.o)
                0x000000000001cf44                errno
 COMMON         0x000000000001cf48        0x4 lib/lib.a(string.o)
                0x000000000001cf48                ___strtok
                0x000000000001cf4c                . = ALIGN ((. != 0x0)?0x4:0x1)
                0x000000000001cf4c                . = ALIGN (0x4)
                0x000000000001cf4c                . = ALIGN (0x4)
                0x000000000001cf4c                _end = .
                0x000000000001cf4c                PROVIDE (end, .)
                0x000000000001cf4c                . = DATA_SEGMENT_END (.)

.stab
 *(.stab)

.stabstr
 *(.stabstr)

.stab.excl
 *(.stab.excl)

.stab.exclstr
 *(.stab.exclstr)

.stab.index
 *(.stab.index)

.stab.indexstr
 *(.stab.indexstr)

.comment        0x0000000000000000       0x2a
 *(.comment)
 .comment       0x0000000000000000       0x2a init/main.o
                                         0x2b (size before relaxing)
 .comment       0x0000000000000000      0x2b0 kernel/kernel.o
 .comment       0x0000000000000000       0x2b mm/mm.o
 .comment       0x0000000000000000      0x331 fs/fs.o
 .comment       0x0000000000000000       0x2b lib/lib.a(ctype.o)
 .comment       0x0000000000000000       0x2b lib/lib.a(_exit.o)
 .comment       0x0000000000000000       0x2b lib/lib.a(open.o)
 .comment       0x0000000000000000       0x2b lib/lib.a(close.o)
 .comment       0x0000000000000000       0x2b lib/lib.a(errno.o)
 .comment       0x0000000000000000       0x2b lib/lib.a(write.o)
 .comment       0x0000000000000000       0x2b lib/lib.a(dup.o)
 .comment       0x0000000000000000       0x2b lib/lib.a(setsid.o)
 .comment       0x0000000000000000       0x2b lib/lib.a(execve.o)
 .comment       0x0000000000000000       0x2b lib/lib.a(wait.o)
 .comment       0x0000000000000000       0x2b lib/lib.a(string.o)

.debug
 *(.debug)

.line
 *(.line)

.debug_srcinfo
 *(.debug_srcinfo)

.debug_sfnames
 *(.debug_sfnames)

.debug_aranges  0x0000000000000000      0x5a0
 *(.debug_aranges)
 .debug_aranges
                0x0000000000000000       0x20 init/main.o
 .debug_aranges
                0x0000000000000020      0x200 kernel/kernel.o
 .debug_aranges
                0x0000000000000220       0x20 mm/mm.o
 .debug_aranges
                0x0000000000000240      0x240 fs/fs.o
 .debug_aranges
                0x0000000000000480       0x20 lib/lib.a(_exit.o)
 .debug_aranges
                0x00000000000004a0       0x20 lib/lib.a(open.o)
 .debug_aranges
                0x00000000000004c0       0x20 lib/lib.a(close.o)
 .debug_aranges
                0x00000000000004e0       0x20 lib/lib.a(write.o)
 .debug_aranges
                0x0000000000000500       0x20 lib/lib.a(dup.o)
 .debug_aranges
                0x0000000000000520       0x20 lib/lib.a(setsid.o)
 .debug_aranges
                0x0000000000000540       0x20 lib/lib.a(execve.o)
 .debug_aranges
                0x0000000000000560       0x20 lib/lib.a(wait.o)
 .debug_aranges
                0x0000000000000580       0x20 lib/lib.a(string.o)

.debug_pubnames
 *(.debug_pubnames)

.debug_info     0x0000000000000000    0x1cdc7
 *(.debug_info .gnu.linkonce.wi.*)
 .debug_info    0x0000000000000000      0xccf init/main.o
 .debug_info    0x0000000000000ccf     0xb250 kernel/kernel.o
 .debug_info    0x000000000000bf1f      0x4d6 mm/mm.o
 .debug_info    0x000000000000c3f5     0xe2e1 fs/fs.o
 .debug_info    0x000000000001a6d6       0x70 lib/lib.a(ctype.o)
 .debug_info    0x000000000001a746      0x3af lib/lib.a(_exit.o)
 .debug_info    0x000000000001aaf5      0x403 lib/lib.a(open.o)
 .debug_info    0x000000000001aef8      0x3ce lib/lib.a(close.o)
 .debug_info    0x000000000001b2c6       0x3f lib/lib.a(errno.o)
 .debug_info    0x000000000001b305      0x400 lib/lib.a(write.o)
 .debug_info    0x000000000001b705      0x3ce lib/lib.a(dup.o)
 .debug_info    0x000000000001bad3      0x3cb lib/lib.a(setsid.o)
 .debug_info    0x000000000001be9e      0x3fc lib/lib.a(execve.o)
 .debug_info    0x000000000001c29a      0x428 lib/lib.a(wait.o)
 .debug_info    0x000000000001c6c2      0x705 lib/lib.a(string.o)

.debug_abbrev   0x0000000000000000     0x4bda
 *(.debug_abbrev)
 .debug_abbrev  0x0000000000000000      0x1d7 init/main.o
 .debug_abbrev  0x00000000000001d7     0x1f80 kernel/kernel.o
 .debug_abbrev  0x0000000000002157      0x1af mm/mm.o
 .debug_abbrev  0x0000000000002306     0x213f fs/fs.o
 .debug_abbrev  0x0000000000004445       0x42 lib/lib.a(ctype.o)
 .debug_abbrev  0x0000000000004487       0xa3 lib/lib.a(_exit.o)
 .debug_abbrev  0x000000000000452a       0xdc lib/lib.a(open.o)
 .debug_abbrev  0x0000000000004606       0xb4 lib/lib.a(close.o)
 .debug_abbrev  0x00000000000046ba       0x30 lib/lib.a(errno.o)
 .debug_abbrev  0x00000000000046ea       0xd7 lib/lib.a(write.o)
 .debug_abbrev  0x00000000000047c1       0xb4 lib/lib.a(dup.o)
 .debug_abbrev  0x0000000000004875       0xb2 lib/lib.a(setsid.o)
 .debug_abbrev  0x0000000000004927       0xbb lib/lib.a(execve.o)
 .debug_abbrev  0x00000000000049e2       0xd0 lib/lib.a(wait.o)
 .debug_abbrev  0x0000000000004ab2      0x128 lib/lib.a(string.o)

.debug_line     0x0000000000000000     0x39f3
 *(.debug_line)
 .debug_line    0x0000000000000000      0x11e init/main.o
 .debug_line    0x000000000000011e     0x174e kernel/kernel.o
 .debug_line    0x000000000000186c      0x122 mm/mm.o
 .debug_line    0x000000000000198e     0x1b9d fs/fs.o
 .debug_line    0x000000000000352b       0x28 lib/lib.a(ctype.o)
 .debug_line    0x0000000000003553       0x50 lib/lib.a(_exit.o)
 .debug_line    0x00000000000035a3       0x76 lib/lib.a(open.o)
 .debug_line    0x0000000000003619       0x6e lib/lib.a(close.o)
 .debug_line    0x0000000000003687       0x28 lib/lib.a(errno.o)
 .debug_line    0x00000000000036af       0x8c lib/lib.a(write.o)
 .debug_line    0x000000000000373b       0x6c lib/lib.a(dup.o)
 .debug_line    0x00000000000037a7       0x88 lib/lib.a(setsid.o)
 .debug_line    0x000000000000382f       0x73 lib/lib.a(execve.o)
 .debug_line    0x00000000000038a2       0x90 lib/lib.a(wait.o)
 .debug_line    0x0000000000003932       0xc1 lib/lib.a(string.o)

.debug_frame
 *(.debug_frame)

.debug_str      0x0000000000000000     0x1c42
 *(.debug_str)
 .debug_str     0x0000000000000000      0x3fa init/main.o
                                        0x4b1 (size before relaxing)
 .debug_str     0x00000000000003fa      0xcf0 kernel/kernel.o
                                       0x4065 (size before relaxing)
 .debug_str     0x00000000000010ea      0x132 mm/mm.o
                                        0x1cd (size before relaxing)
 .debug_str     0x000000000000121c      0x94f fs/fs.o
                                       0x54bb (size before relaxing)
 .debug_str     0x0000000000001b6b       0x32 lib/lib.a(ctype.o)
                                         0x72 (size before relaxing)
 .debug_str     0x0000000000001b9d        0x8 lib/lib.a(_exit.o)
                                        0x290 (size before relaxing)
 .debug_str     0x0000000000000000        0x8 lib/lib.a(open.o)
                                        0x2a0 (size before relaxing)
 .debug_str     0x0000000000001ba5        0x8 lib/lib.a(close.o)
                                        0x292 (size before relaxing)
 .debug_str     0x0000000000001bad        0x8 lib/lib.a(errno.o)
                                         0x44 (size before relaxing)
 .debug_str     0x0000000000000000        0x8 lib/lib.a(write.o)
                                        0x29e (size before relaxing)
 .debug_str     0x0000000000001bb5        0x6 lib/lib.a(dup.o)
                                        0x28a (size before relaxing)
 .debug_str     0x0000000000001bbb        0x9 lib/lib.a(setsid.o)
                                        0x29a (size before relaxing)
 .debug_str     0x0000000000001bc4        0x9 lib/lib.a(execve.o)
                                        0x2a3 (size before relaxing)
 .debug_str     0x0000000000001bcd       0x11 lib/lib.a(wait.o)
                                        0x2b0 (size before relaxing)
 .debug_str     0x0000000000001bde       0x64 lib/lib.a(string.o)
                                         0xf8 (size before relaxing)

.debug_loc      0x0000000000000000     0xb626
 *(.debug_loc)
 .debug_loc     0x0000000000000000      0x256 init/main.o
 .debug_loc     0x0000000000000256     0x446a kernel/kernel.o
 .debug_loc     0x00000000000046c0      0x640 mm/mm.o
 .debug_loc     0x0000000000004d00     0x6353 fs/fs.o
 .debug_loc     0x000000000000b053       0x2c lib/lib.a(_exit.o)
 .debug_loc     0x000000000000b07f       0x3f lib/lib.a(open.o)
 .debug_loc     0x000000000000b0be       0x3f lib/lib.a(close.o)
 .debug_loc     0x000000000000b0fd       0x57 lib/lib.a(write.o)
 .debug_loc     0x000000000000b154       0x3f lib/lib.a(dup.o)
 .debug_loc     0x000000000000b193       0x13 lib/lib.a(setsid.o)
 .debug_loc     0x000000000000b1a6       0x57 lib/lib.a(execve.o)
 .debug_loc     0x000000000000b1fd       0x83 lib/lib.a(wait.o)
 .debug_loc     0x000000000000b280      0x3a6 lib/lib.a(string.o)

.debug_macinfo
 *(.debug_macinfo)

.debug_weaknames
 *(.debug_weaknames)

.debug_funcnames
 *(.debug_funcnames)

.debug_typenames
 *(.debug_typenames)

.debug_varnames
 *(.debug_varnames)

.debug_pubtypes
 *(.debug_pubtypes)

.debug_ranges   0x0000000000000000      0x4b8
 *(.debug_ranges)
 .debug_ranges  0x0000000000000000      0x1b0 kernel/kernel.o
 .debug_ranges  0x00000000000001b0      0x308 fs/fs.o

.gnu.attributes
 *(.gnu.attributes)

/DISCARD/
 *(.note.GNU-stack)
 *(.gnu_debuglink)
 *(.gnu.lto_*)
OUTPUT(tools/system elf32-i386)
